target datalayout = "e-m:e-p270:32:32-p271:32:32-p272:64:64-i64:64-i128:128-f80:128-n8:16:32:64-S128"
target triple = "x86_64-pc-linux-gnu"

%struct.AVRational = type { i32, i32 }
%struct.AVFrame = type { [8 x ptr], [8 x i32], ptr, i32, i32, i32, i32, i32, %struct.AVRational, i64, i64, %struct.AVRational, i32, ptr, i32, i32, [8 x ptr], ptr, i32, ptr, i32, i32, i32, i32, i32, i32, i32, i64, ptr, i32, ptr, ptr, i64, i64, i64, i64, ptr, %struct.AVChannelLayout, i64 }
%struct.AVChannelLayout = type { i32, i32, %union.anon, ptr }
%union.anon = type { i64 }

; Function Attrs: nounwind uwtable
define i32 @av_frame_copy_props(ptr noundef %0, ptr noundef %1) #0 {
  %3 = alloca ptr, align 8
  %4 = alloca ptr, align 8
  store ptr %0, ptr %3, align 8, !tbaa !4
  store ptr %1, ptr %4, align 8, !tbaa !4
  %5 = load ptr, ptr %3, align 8, !tbaa !4
  %6 = load ptr, ptr %4, align 8, !tbaa !4
  %7 = call i32 @frame_copy_props(ptr noundef %5, ptr noundef %6, i32 noundef 1)
  ret i32 %7
}

; Function Attrs: nounwind uwtable
define i32 @av_frame_is_writable(ptr noundef %0) #0 {
  %2 = alloca i32, align 4
  %3 = alloca ptr, align 8
  %4 = alloca i32, align 4
  %5 = alloca i32, align 4
  %6 = alloca i32, align 4
  %7 = alloca i32, align 4
  store ptr %0, ptr %3, align 8, !tbaa !4
  call void @llvm.lifetime.start.p0(i64 4, ptr %4) #7
  store i32 1, ptr %4, align 4, !tbaa !27
  %8 = load ptr, ptr %3, align 8, !tbaa !4
  %9 = getelementptr inbounds nuw %struct.AVFrame, ptr %8, i32 0, i32 16
  %10 = getelementptr inbounds [8 x ptr], ptr %9, i64 0, i64 0
  %11 = load ptr, ptr %10, align 8, !tbaa !53
  %12 = icmp ne ptr %11, null
  br i1 %12, label %14, label %13

13:                                               ; preds = %1
  store i32 0, ptr %2, align 4
  store i32 1, ptr %5, align 4
  br label %74

14:                                               ; preds = %1
  call void @llvm.lifetime.start.p0(i64 4, ptr %6) #7
  store i32 0, ptr %6, align 4, !tbaa !27
  br label %15

15:                                               ; preds = %43, %14
  %16 = load i32, ptr %6, align 4, !tbaa !27
  %17 = sext i32 %16 to i64
  %18 = icmp ult i64 %17, 8
  br i1 %18, label %20, label %19

19:                                               ; preds = %15
  store i32 2, ptr %5, align 4
  call void @llvm.lifetime.end.p0(i64 4, ptr %6) #7
  br label %46

20:                                               ; preds = %15
  %21 = load ptr, ptr %3, align 8, !tbaa !4
  %22 = getelementptr inbounds nuw %struct.AVFrame, ptr %21, i32 0, i32 16
  %23 = load i32, ptr %6, align 4, !tbaa !27
  %24 = sext i32 %23 to i64
  %25 = getelementptr inbounds [8 x ptr], ptr %22, i64 0, i64 %24
  %26 = load ptr, ptr %25, align 8, !tbaa !53
  %27 = icmp ne ptr %26, null
  br i1 %27, label %28, label %42

28:                                               ; preds = %20
  %29 = load ptr, ptr %3, align 8, !tbaa !4
  %30 = getelementptr inbounds nuw %struct.AVFrame, ptr %29, i32 0, i32 16
  %31 = load i32, ptr %6, align 4, !tbaa !27
  %32 = sext i32 %31 to i64
  %33 = getelementptr inbounds [8 x ptr], ptr %30, i64 0, i64 %32
  %34 = load ptr, ptr %33, align 8, !tbaa !53
  %35 = call i32 @av_buffer_is_writable(ptr noundef %34)
  %36 = icmp ne i32 %35, 0
  %37 = xor i1 %36, true
  %38 = xor i1 %37, true
  %39 = zext i1 %38 to i32
  %40 = load i32, ptr %4, align 4, !tbaa !27
  %41 = and i32 %40, %39
  store i32 %41, ptr %4, align 4, !tbaa !27
  br label %42

42:                                               ; preds = %28, %20
  br label %43

43:                                               ; preds = %42
  %44 = load i32, ptr %6, align 4, !tbaa !27
  %45 = add nsw i32 %44, 1
  store i32 %45, ptr %6, align 4, !tbaa !27
  br label %15, !llvm.loop !101

46:                                               ; preds = %19
  call void @llvm.lifetime.start.p0(i64 4, ptr %7) #7
  store i32 0, ptr %7, align 4, !tbaa !27
  br label %47

47:                                               ; preds = %69, %46
  %48 = load i32, ptr %7, align 4, !tbaa !27
  %49 = load ptr, ptr %3, align 8, !tbaa !4
  %50 = getelementptr inbounds nuw %struct.AVFrame, ptr %49, i32 0, i32 18
  %51 = load i32, ptr %50, align 8, !tbaa !40
  %52 = icmp slt i32 %48, %51
  br i1 %52, label %54, label %53

53:                                               ; preds = %47
  store i32 5, ptr %5, align 4
  call void @llvm.lifetime.end.p0(i64 4, ptr %7) #7
  br label %72

54:                                               ; preds = %47
  %55 = load ptr, ptr %3, align 8, !tbaa !4
  %56 = getelementptr inbounds nuw %struct.AVFrame, ptr %55, i32 0, i32 17
  %57 = load ptr, ptr %56, align 8, !tbaa !41
  %58 = load i32, ptr %7, align 4, !tbaa !27
  %59 = sext i32 %58 to i64
  %60 = getelementptr inbounds ptr, ptr %57, i64 %59
  %61 = load ptr, ptr %60, align 8, !tbaa !53
  %62 = call i32 @av_buffer_is_writable(ptr noundef %61)
  %63 = icmp ne i32 %62, 0
  %64 = xor i1 %63, true
  %65 = xor i1 %64, true
  %66 = zext i1 %65 to i32
  %67 = load i32, ptr %4, align 4, !tbaa !27
  %68 = and i32 %67, %66
  store i32 %68, ptr %4, align 4, !tbaa !27
  br label %69

69:                                               ; preds = %54
  %70 = load i32, ptr %7, align 4, !tbaa !27
  %71 = add nsw i32 %70, 1
  store i32 %71, ptr %7, align 4, !tbaa !27
  br label %47, !llvm.loop !102

72:                                               ; preds = %53
  %73 = load i32, ptr %4, align 4, !tbaa !27
  store i32 %73, ptr %2, align 4
  store i32 1, ptr %5, align 4
  br label %74

74:                                               ; preds = %72, %13
  call void @llvm.lifetime.end.p0(i64 4, ptr %4) #7
  %75 = load i32, ptr %2, align 4
  ret i32 %75
}

; Function Attrs: nounwind uwtable
define i32 @av_frame_make_writable(ptr noundef %0) #0 {
  %2 = alloca i32, align 4
  %3 = alloca ptr, align 8
  %4 = alloca %struct.AVFrame, align 8
  %5 = alloca i32, align 4
  %6 = alloca i32, align 4
  store ptr %0, ptr %3, align 8, !tbaa !4
  call void @llvm.lifetime.start.p0(i64 416, ptr %4) #7
  call void @llvm.lifetime.start.p0(i64 4, ptr %5) #7
  %7 = load ptr, ptr %3, align 8, !tbaa !4
  %8 = call i32 @av_frame_is_writable(ptr noundef %7)
  %9 = icmp ne i32 %8, 0
  br i1 %9, label %10, label %11

10:                                               ; preds = %1
  store i32 0, ptr %2, align 4
  store i32 1, ptr %6, align 4
  br label %82

11:                                               ; preds = %1
  call void @llvm.memset.p0.i64(ptr align 8 %4, i8 0, i64 416, i1 false)
  %12 = load ptr, ptr %3, align 8, !tbaa !4
  %13 = getelementptr inbounds nuw %struct.AVFrame, ptr %12, i32 0, i32 6
  %14 = load i32, ptr %13, align 4, !tbaa !28
  %15 = getelementptr inbounds nuw %struct.AVFrame, ptr %4, i32 0, i32 6
  store i32 %14, ptr %15, align 4, !tbaa !28
  %16 = load ptr, ptr %3, align 8, !tbaa !4
  %17 = getelementptr inbounds nuw %struct.AVFrame, ptr %16, i32 0, i32 3
  %18 = load i32, ptr %17, align 8, !tbaa !43
  %19 = getelementptr inbounds nuw %struct.AVFrame, ptr %4, i32 0, i32 3
  store i32 %18, ptr %19, align 8, !tbaa !43
  %20 = load ptr, ptr %3, align 8, !tbaa !4
  %21 = getelementptr inbounds nuw %struct.AVFrame, ptr %20, i32 0, i32 4
  %22 = load i32, ptr %21, align 4, !tbaa !44
  %23 = getelementptr inbounds nuw %struct.AVFrame, ptr %4, i32 0, i32 4
  store i32 %22, ptr %23, align 4, !tbaa !44
  %24 = load ptr, ptr %3, align 8, !tbaa !4
  %25 = getelementptr inbounds nuw %struct.AVFrame, ptr %24, i32 0, i32 5
  %26 = load i32, ptr %25, align 8, !tbaa !45
  %27 = getelementptr inbounds nuw %struct.AVFrame, ptr %4, i32 0, i32 5
  store i32 %26, ptr %27, align 8, !tbaa !45
  %28 = getelementptr inbounds nuw %struct.AVFrame, ptr %4, i32 0, i32 37
  %29 = load ptr, ptr %3, align 8, !tbaa !4
  %30 = getelementptr inbounds nuw %struct.AVFrame, ptr %29, i32 0, i32 37
  %31 = call i32 @av_channel_layout_copy(ptr noundef %28, ptr noundef %30)
  store i32 %31, ptr %5, align 4, !tbaa !27
  %32 = load i32, ptr %5, align 4, !tbaa !27
  %33 = icmp slt i32 %32, 0
  br i1 %33, label %34, label %36

34:                                               ; preds = %11
  call void @av_frame_unref(ptr noundef %4)
  %35 = load i32, ptr %5, align 4, !tbaa !27
  store i32 %35, ptr %2, align 4
  store i32 1, ptr %6, align 4
  br label %82

36:                                               ; preds = %11
  %37 = load ptr, ptr %3, align 8, !tbaa !4
  %38 = getelementptr inbounds nuw %struct.AVFrame, ptr %37, i32 0, i32 30
  %39 = load ptr, ptr %38, align 8, !tbaa !65
  %40 = icmp ne ptr %39, null
  br i1 %40, label %41, label %46

41:                                               ; preds = %36
  %42 = load ptr, ptr %3, align 8, !tbaa !4
  %43 = getelementptr inbounds nuw %struct.AVFrame, ptr %42, i32 0, i32 30
  %44 = load ptr, ptr %43, align 8, !tbaa !65
  %45 = call i32 @av_hwframe_get_buffer(ptr noundef %44, ptr noundef %4, i32 noundef 0)
  store i32 %45, ptr %5, align 4, !tbaa !27
  br label %48

46:                                               ; preds = %36
  %47 = call i32 @av_frame_get_buffer(ptr noundef %4, i32 noundef 0)
  store i32 %47, ptr %5, align 4, !tbaa !27
  br label %48

48:                                               ; preds = %46, %41
  %49 = load i32, ptr %5, align 4, !tbaa !27
  %50 = icmp slt i32 %49, 0
  br i1 %50, label %51, label %53

51:                                               ; preds = %48
  %52 = load i32, ptr %5, align 4, !tbaa !27
  store i32 %52, ptr %2, align 4
  store i32 1, ptr %6, align 4
  br label %82

53:                                               ; preds = %48
  %54 = load ptr, ptr %3, align 8, !tbaa !4
  %55 = call i32 @av_frame_copy(ptr noundef %4, ptr noundef %54)
  store i32 %55, ptr %5, align 4, !tbaa !27
  %56 = load i32, ptr %5, align 4, !tbaa !27
  %57 = icmp slt i32 %56, 0
  br i1 %57, label %58, label %60

58:                                               ; preds = %53
  call void @av_frame_unref(ptr noundef %4)
  %59 = load i32, ptr %5, align 4, !tbaa !27
  store i32 %59, ptr %2, align 4
  store i32 1, ptr %6, align 4
  br label %82

60:                                               ; preds = %53
  %61 = load ptr, ptr %3, align 8, !tbaa !4
  %62 = call i32 @av_frame_copy_props(ptr noundef %4, ptr noundef %61)
  store i32 %62, ptr %5, align 4, !tbaa !27
  %63 = load i32, ptr %5, align 4, !tbaa !27
  %64 = icmp slt i32 %63, 0
  br i1 %64, label %65, label %67

65:                                               ; preds = %60
  call void @av_frame_unref(ptr noundef %4)
  %66 = load i32, ptr %5, align 4, !tbaa !27
  store i32 %66, ptr %2, align 4
  store i32 1, ptr %6, align 4
  br label %82

67:                                               ; preds = %60
  %68 = load ptr, ptr %3, align 8, !tbaa !4
  call void @av_frame_unref(ptr noundef %68)
  %69 = load ptr, ptr %3, align 8, !tbaa !4
  call void @llvm.memcpy.p0.p0.i64(ptr align 8 %69, ptr align 8 %4, i64 416, i1 false), !tbaa.struct !95
  %70 = getelementptr inbounds nuw %struct.AVFrame, ptr %4, i32 0, i32 0
  %71 = getelementptr inbounds [8 x ptr], ptr %70, i64 0, i64 0
  %72 = getelementptr inbounds nuw %struct.AVFrame, ptr %4, i32 0, i32 2
  %73 = load ptr, ptr %72, align 8, !tbaa !29
  %74 = icmp eq ptr %71, %73
  br i1 %74, label %75, label %81

75:                                               ; preds = %67
  %76 = load ptr, ptr %3, align 8, !tbaa !4
  %77 = getelementptr inbounds nuw %struct.AVFrame, ptr %76, i32 0, i32 0
  %78 = getelementptr inbounds [8 x ptr], ptr %77, i64 0, i64 0
  %79 = load ptr, ptr %3, align 8, !tbaa !4
  %80 = getelementptr inbounds nuw %struct.AVFrame, ptr %79, i32 0, i32 2
  store ptr %78, ptr %80, align 8, !tbaa !29
  br label %81

81:                                               ; preds = %75, %67
  store i32 0, ptr %2, align 4
  store i32 1, ptr %6, align 4
  br label %82

82:                                               ; preds = %81, %65, %58, %51, %34, %10
  call void @llvm.lifetime.end.p0(i64 4, ptr %5) #7
  call void @llvm.lifetime.end.p0(i64 416, ptr %4) #7
  %83 = load i32, ptr %2, align 4
  ret i32 %83
}