; Function Attrs: nounwind uwtable
define range(i32 -2147483648, 1) i32 @av_frame_make_writable(ptr noundef %0) local_unnamed_addr #0 {
  %2 = alloca %struct.AVFrame, align 8
  call void @llvm.lifetime.start.p0(i64 416, ptr nonnull %2) #8
  %3 = getelementptr inbounds nuw i8, ptr %0, i64 184
  %4 = load ptr, ptr %3, align 8, !tbaa !42
  %.not.i = icmp eq ptr %4, null
  br i1 %.not.i, label %av_frame_is_writable.exit.thread, label %.preheader23.i

.preheader.i:                                     ; preds = %16
  %5 = getelementptr inbounds nuw i8, ptr %0, i64 256
  %6 = load i32, ptr %5, align 8, !tbaa !30
  %7 = icmp sgt i32 %6, 0
  br i1 %7, label %.lr.ph.i, label %av_frame_is_writable.exit

.lr.ph.i:                                         ; preds = %.preheader.i
  %8 = getelementptr inbounds nuw i8, ptr %0, i64 248
  %9 = and i32 %.1.i, 1
  br label %17

.preheader23.i:                                   ; preds = %1, %16
  %indvars.iv.i = phi i64 [ %indvars.iv.next.i, %16 ], [ 0, %1 ]
  %.01624.i = phi i32 [ %.1.i, %16 ], [ 1, %1 ]
  %10 = getelementptr inbounds nuw [8 x ptr], ptr %3, i64 0, i64 %indvars.iv.i
  %11 = load ptr, ptr %10, align 8, !tbaa !42
  %.not21.i = icmp eq ptr %11, null
  br i1 %.not21.i, label %16, label %12

12:                                               ; preds = %.preheader23.i
  %13 = tail call i32 @av_buffer_is_writable(ptr noundef nonnull %11) #8
  %.not22.i = icmp eq i32 %13, 0
  %14 = and i32 %.01624.i, 1
  %15 = select i1 %.not22.i, i32 0, i32 %14
  br label %16

16:                                               ; preds = %12, %.preheader23.i
  %.1.i = phi i32 [ %15, %12 ], [ %.01624.i, %.preheader23.i ]
  %indvars.iv.next.i = add nuw nsw i64 %indvars.iv.i, 1
  %exitcond.not.i = icmp eq i64 %indvars.iv.next.i, 8
  br i1 %exitcond.not.i, label %.preheader.i, label %.preheader23.i, !llvm.loop !96

17:                                               ; preds = %17, %.lr.ph.i
  %indvars.iv29.i = phi i64 [ 0, %.lr.ph.i ], [ %indvars.iv.next30.i, %17 ]
  %.226.i = phi i32 [ %9, %.lr.ph.i ], [ %22, %17 ]
  %18 = load ptr, ptr %8, align 8, !tbaa !33
  %19 = getelementptr inbounds nuw ptr, ptr %18, i64 %indvars.iv29.i
  %20 = load ptr, ptr %19, align 8, !tbaa !42
  %21 = tail call i32 @av_buffer_is_writable(ptr noundef %20) #8
  %.not20.i = icmp eq i32 %21, 0
  %22 = select i1 %.not20.i, i32 0, i32 %.226.i
  %indvars.iv.next30.i = add nuw nsw i64 %indvars.iv29.i, 1
  %23 = load i32, ptr %5, align 8, !tbaa !30
  %24 = sext i32 %23 to i64
  %25 = icmp slt i64 %indvars.iv.next30.i, %24
  br i1 %25, label %17, label %av_frame_is_writable.exit, !llvm.loop !97

av_frame_is_writable.exit:                        ; preds = %17, %.preheader.i
  %.017.i = phi i32 [ %.1.i, %.preheader.i ], [ %22, %17 ]
  %.not = icmp eq i32 %.017.i, 0
  br i1 %.not, label %av_frame_is_writable.exit.thread, label %66

av_frame_is_writable.exit.thread:                 ; preds = %1, %av_frame_is_writable.exit
  call void @llvm.memset.p0.i64(ptr noundef nonnull align 8 dereferenceable(416) %2, i8 0, i64 416, i1 false)
  %26 = getelementptr inbounds nuw i8, ptr %0, i64 116
  %27 = load i32, ptr %26, align 4, !tbaa !23
  %28 = getelementptr inbounds nuw i8, ptr %2, i64 116
  store i32 %27, ptr %28, align 4, !tbaa !23
  %29 = getelementptr inbounds nuw i8, ptr %0, i64 104
  %30 = load i32, ptr %29, align 8, !tbaa !35
  %31 = getelementptr inbounds nuw i8, ptr %2, i64 104
  store i32 %30, ptr %31, align 8, !tbaa !35
  %32 = getelementptr inbounds nuw i8, ptr %0, i64 108
  %33 = load i32, ptr %32, align 4, !tbaa !36
  %34 = getelementptr inbounds nuw i8, ptr %2, i64 108
  store i32 %33, ptr %34, align 4, !tbaa !36
  %35 = getelementptr inbounds nuw i8, ptr %0, i64 112
  %36 = load i32, ptr %35, align 8, !tbaa !49
  %37 = getelementptr inbounds nuw i8, ptr %2, i64 112
  store i32 %36, ptr %37, align 8, !tbaa !49
  %38 = getelementptr inbounds nuw i8, ptr %2, i64 384
  %39 = getelementptr inbounds nuw i8, ptr %0, i64 384
  %40 = call i32 @av_channel_layout_copy(ptr noundef nonnull %38, ptr noundef nonnull %39) #8
  %41 = icmp slt i32 %40, 0
  br i1 %41, label %42, label %43

42:                                               ; preds = %av_frame_is_writable.exit.thread
  call void @av_frame_unref(ptr noundef nonnull %2)
  br label %66

43:                                               ; preds = %av_frame_is_writable.exit.thread
  %44 = getelementptr inbounds nuw i8, ptr %0, i64 328
  %45 = load ptr, ptr %44, align 8, !tbaa !55
  %.not27 = icmp eq ptr %45, null
  br i1 %.not27, label %48, label %46

46:                                               ; preds = %43
  %47 = call i32 @av_hwframe_get_buffer(ptr noundef nonnull %45, ptr noundef nonnull %2, i32 noundef 0) #8
  br label %50

48:                                               ; preds = %43
  %49 = call i32 @av_frame_get_buffer(ptr noundef nonnull %2, i32 noundef 0)
  br label %50

50:                                               ; preds = %48, %46
  %.0 = phi i32 [ %47, %46 ], [ %49, %48 ]
  %51 = icmp slt i32 %.0, 0
  br i1 %51, label %66, label %52

52:                                               ; preds = %50
  %53 = call i32 @av_frame_copy(ptr noundef nonnull %2, ptr noundef nonnull %0)
  %54 = icmp slt i32 %53, 0
  br i1 %54, label %55, label %56

55:                                               ; preds = %52
  call void @av_frame_unref(ptr noundef nonnull %2)
  br label %66

56:                                               ; preds = %52
  %57 = call fastcc i32 @frame_copy_props(ptr noundef nonnull %2, ptr noundef nonnull readonly %0, i32 noundef 1)
  %58 = icmp slt i32 %57, 0
  br i1 %58, label %59, label %60

59:                                               ; preds = %56
  call void @av_frame_unref(ptr noundef nonnull %2)
  br label %66

60:                                               ; preds = %56
  call void @av_frame_unref(ptr noundef nonnull %0)
  call void @llvm.memcpy.p0.p0.i64(ptr noundef nonnull align 8 dereferenceable(416) %0, ptr noundef nonnull align 8 dereferenceable(416) %2, i64 416, i1 false), !tbaa.struct !89
  %61 = getelementptr inbounds nuw i8, ptr %2, i64 96
  %62 = load ptr, ptr %61, align 8, !tbaa !24
  %63 = icmp eq ptr %2, %62
  br i1 %63, label %64, label %66

64:                                               ; preds = %60
  %65 = getelementptr inbounds nuw i8, ptr %0, i64 96
  store ptr %0, ptr %65, align 8, !tbaa !24
  br label %66

66:                                               ; preds = %60, %64, %50, %av_frame_is_writable.exit, %59, %55, %42
  %.022 = phi i32 [ %40, %42 ], [ %53, %55 ], [ %57, %59 ], [ 0, %av_frame_is_writable.exit ], [ %.0, %50 ], [ 0, %64 ], [ 0, %60 ]
  call void @llvm.lifetime.end.p0(i64 416, ptr nonnull %2) #8
  ret i32 %.022
}